target datalayout = "e-m:e-p270:32:32-p271:32:32-p272:64:64-i64:64-i128:128-f80:128-n8:16:32:64-S128"
target triple = "x86_64-pc-linux-gnu"

%struct.AVCodecContext = type { ptr, i32, i32, ptr, i32, i32, ptr, ptr, ptr, i64, i32, i32, ptr, i32, %struct.AVRational, %struct.AVRational, %struct.AVRational, i32, i32, i32, i32, i32, %struct.AVRational, i32, i32, i32, i32, i32, i32, i32, i32, i32, i32, i32, ptr, ptr, i32, float, float, float, float, float, float, float, float, float, i32, i32, i32, i32, i32, i32, i32, i32, i32, i32, i32, i32, ptr, ptr, ptr, i32, i32, i32, i32, i32, i32, i32, i32, i32, i32, %struct.AVChannelLayout, i32, i32, i32, i32, i32, i32, i32, i32, ptr, i32, i32, i32, float, float, i32, i32, i32, i32, i32, ptr, i64, i64, float, float, i32, i32, ptr, ptr, i32, i32, i32, i32, i32, ptr, ptr, ptr, ptr, i32, i32, [8 x i64], i32, i32, i32, i32, i32, i32, i32, ptr, ptr, i32, i32, i32, i32, i32, i32, i32, i32, i32, i32, ptr, ptr, i32, i32, ptr, ptr, ptr, ptr, i32, i32, i64, i32, i32, i64, ptr, i64, ptr, i32, ptr, i32 }
%struct.AVRational = type { i32, i32 }
%struct.AVChannelLayout = type { i32, i32, %union.anon.0, ptr }
%union.anon.0 = type { i64 }
%struct.RV34DecContext = type { %struct.MpegEncContext, %struct.RV34DSPContext, ptr, ptr, i32, ptr, ptr, ptr, %struct.H264PredContext, %struct.SliceInfo, ptr, i32, i32, i32, i32, [4 x [2 x i32]], i32, i32, i32, i32, i32, i32, i32, i32, i32, i32, i32, i32, ptr, ptr, ptr, [12 x i32], [2 x ptr], [4 x ptr], ptr, ptr, ptr, ptr, ptr }
%struct.MpegEncContext = type { ptr, i32, i32, i32, [12 x i32], i32, %struct.ScanTable, %struct.ScanTable, [64 x i8], [64 x i8], ptr, ptr, i32, i32, i32, i32, i32, i32, i32, i32, i32, i32, i32, i32, i32, i32, i32, i32, i32, i32, i32, i32, i64, i64, ptr, %struct.BufferPoolContext, i32, i32, %union.anon.1, i32, %struct.MPVWorkPicture, %struct.MPVWorkPicture, %struct.MPVWorkPicture, i32, [3 x i32], ptr, [3 x ptr], ptr, ptr, ptr, ptr, ptr, ptr, [3 x ptr], i32, ptr, ptr, ptr, ptr, %struct.ScratchpadContext, i32, i32, i32, i32, i32, i32, %struct.BlockDSPContext, %struct.H264ChromaContext, %struct.HpelDSPContext, %struct.IDCTDSPContext, %struct.QpelDSPContext, %struct.VideoDSPContext, %struct.H263DSPContext, ptr, [2 x [2 x ptr]], i32, i32, [2 x [4 x [2 x i32]]], [2 x [2 x i32]], [2 x [2 x [2 x i32]]], [2 x [64 x i16]], i32, i32, i32, i32, i32, [6 x i32], [6 x i32], [3 x ptr], ptr, [64 x i16], [64 x i16], [64 x i16], [64 x i16], i32, i32, %struct.GetBitContext, i32, i32, i32, i32, i32, i32, i32, i32, i32, i32, i32, i32, i32, i32, i32, i64, i64, i16, i16, i16, i16, i32, i32, i32, i32, i32, i32, i32, i32, i32, [3 x i32], i32, i32, i32, i32, i32, i32, %struct.GetBitContext, i32, [2 x [2 x i32]], i32, i32, i32, i32, i32, i32, i32, i32, i32, i32, i32, i32, i32, i32, [2 x i32], i32, i32, ptr, ptr, ptr, ptr, ptr, i32, i32, %struct.ERContext }
%struct.ScanTable = type { ptr, [64 x i8], [64 x i8] }
%struct.BufferPoolContext = type { ptr, ptr, ptr, ptr, ptr, i32, i32, i32 }
%union.anon.1 = type { [32 x ptr] }
%struct.MPVWorkPicture = type { [3 x ptr], [3 x i64], ptr, ptr, [2 x ptr], ptr, ptr, [2 x ptr], i32 }
%struct.ScratchpadContext = type { ptr, ptr, %union.anon.2, i32 }
%union.anon.2 = type { ptr }
%struct.BlockDSPContext = type { ptr, ptr, [2 x ptr] }
%struct.H264ChromaContext = type { [4 x ptr], [4 x ptr] }
%struct.HpelDSPContext = type { [4 x [4 x ptr]], [4 x [4 x ptr]], [4 x [4 x ptr]], [4 x ptr] }
%struct.IDCTDSPContext = type { ptr, ptr, ptr, ptr, ptr, ptr, [64 x i8], i32, i32 }
%struct.QpelDSPContext = type { [2 x [16 x ptr]], [2 x [16 x ptr]], [2 x [16 x ptr]] }
%struct.VideoDSPContext = type { ptr, ptr }
%struct.H263DSPContext = type { ptr, ptr }
%struct.GetBitContext = type { ptr, ptr, i32, i32, i32 }
%struct.ERContext = type { ptr, ptr, i32, ptr, i32, i32, i32, i64, i64, i32, i32, ptr, ptr, [3 x ptr], ptr, ptr, [2 x [4 x [2 x i32]]], %struct.ERPicture, %struct.ERPicture, %struct.ERPicture, [2 x ptr], [2 x ptr], i16, i16, i32, i32, ptr, ptr }
%struct.ERPicture = type { ptr, ptr, ptr, [2 x ptr], [2 x ptr], ptr, i32 }
%struct.RV34DSPContext = type { [4 x [16 x ptr]], [4 x [16 x ptr]], [3 x ptr], [3 x ptr], [2 x [2 x ptr]], ptr, ptr, ptr, ptr, [2 x ptr], [2 x ptr], [2 x ptr] }
%struct.H264PredContext = type { [15 x ptr], [12 x ptr], [11 x ptr], [9 x ptr], [2 x ptr], [2 x ptr], [2 x ptr], [3 x ptr], [3 x ptr] }
%struct.SliceInfo = type { i32, i32, i32, i32, i32, i32, i32, i32 }

@.str.2 = private unnamed_addr constant [25 x i8] c"Extradata is too small.\0A\00", align 1
@.str.3 = private unnamed_addr constant [57 x i8] c"Insufficient extradata - need at least %d bytes, got %d\0A\00", align 1
@rv30_luma_dc_quant = internal constant [32 x i8] c"\00\01\02\03\04\05\06\07\08\09\0A\0B\0C\0D\0E\0F\10\11\12\13\14\15\16\16\16\17\17\17\18\18\19\19", align 16

; Function Attrs: cold nounwind optsize uwtable
define internal i32 @rv30_decode_init(ptr noundef %0) #1 {
  %2 = alloca i32, align 4
  %3 = alloca ptr, align 8
  %4 = alloca ptr, align 8
  %5 = alloca i32, align 4
  %6 = alloca i32, align 4
  store ptr %0, ptr %3, align 8, !tbaa !4
  call void @llvm.lifetime.start.p0(i64 8, ptr %4) #7
  %7 = load ptr, ptr %3, align 8, !tbaa !4
  %8 = getelementptr inbounds nuw %struct.AVCodecContext, ptr %7, i32 0, i32 6
  %9 = load ptr, ptr %8, align 8, !tbaa !9
  store ptr %9, ptr %4, align 8, !tbaa !29
  call void @llvm.lifetime.start.p0(i64 4, ptr %5) #7
  %10 = load ptr, ptr %3, align 8, !tbaa !4
  %11 = getelementptr inbounds nuw %struct.AVCodecContext, ptr %10, i32 0, i32 20
  %12 = load i32, ptr %11, align 8, !tbaa !31
  %13 = load ptr, ptr %4, align 8, !tbaa !29
  %14 = getelementptr inbounds nuw %struct.RV34DecContext, ptr %13, i32 0, i32 26
  store i32 %12, ptr %14, align 8, !tbaa !32
  %15 = load ptr, ptr %3, align 8, !tbaa !4
  %16 = getelementptr inbounds nuw %struct.AVCodecContext, ptr %15, i32 0, i32 21
  %17 = load i32, ptr %16, align 4, !tbaa !59
  %18 = load ptr, ptr %4, align 8, !tbaa !29
  %19 = getelementptr inbounds nuw %struct.RV34DecContext, ptr %18, i32 0, i32 27
  store i32 %17, ptr %19, align 4, !tbaa !60
  %20 = load ptr, ptr %3, align 8, !tbaa !4
  %21 = getelementptr inbounds nuw %struct.AVCodecContext, ptr %20, i32 0, i32 13
  %22 = load i32, ptr %21, align 8, !tbaa !61
  %23 = icmp slt i32 %22, 2
  br i1 %23, label %24, label %26

24:                                               ; preds = %1
  %25 = load ptr, ptr %3, align 8, !tbaa !4
  call void (ptr, i32, ptr, ...) @av_log(ptr noundef %25, i32 noundef 16, ptr noundef @.str.2)
  store i32 -22, ptr %2, align 4
  store i32 1, ptr %6, align 4
  br label %78

26:                                               ; preds = %1
  %27 = load ptr, ptr %4, align 8, !tbaa !29
  %28 = getelementptr inbounds nuw %struct.RV34DecContext, ptr %27, i32 0, i32 16
  store i32 1, ptr %28, align 8, !tbaa !62
  %29 = load ptr, ptr %3, align 8, !tbaa !4
  %30 = call i32 @ff_rv34_decode_init(ptr noundef %29)
  store i32 %30, ptr %5, align 4, !tbaa !63
  %31 = icmp slt i32 %30, 0
  br i1 %31, label %32, label %34

32:                                               ; preds = %26
  %33 = load i32, ptr %5, align 4, !tbaa !63
  store i32 %33, ptr %2, align 4
  store i32 1, ptr %6, align 4
  br label %78

34:                                               ; preds = %26
  %35 = load ptr, ptr %3, align 8, !tbaa !4
  %36 = getelementptr inbounds nuw %struct.AVCodecContext, ptr %35, i32 0, i32 12
  %37 = load ptr, ptr %36, align 8, !tbaa !64
  %38 = getelementptr inbounds i8, ptr %37, i64 1
  %39 = load i8, ptr %38, align 1, !tbaa !65
  %40 = zext i8 %39 to i32
  %41 = and i32 %40, 7
  %42 = load ptr, ptr %4, align 8, !tbaa !29
  %43 = getelementptr inbounds nuw %struct.RV34DecContext, ptr %42, i32 0, i32 17
  store i32 %41, ptr %43, align 4, !tbaa !66
  %44 = load ptr, ptr %3, align 8, !tbaa !4
  %45 = getelementptr inbounds nuw %struct.AVCodecContext, ptr %44, i32 0, i32 13
  %46 = load i32, ptr %45, align 8, !tbaa !61
  %47 = load ptr, ptr %4, align 8, !tbaa !29
  %48 = getelementptr inbounds nuw %struct.RV34DecContext, ptr %47, i32 0, i32 17
  %49 = load i32, ptr %48, align 4, !tbaa !66
  %50 = mul nsw i32 2, %49
  %51 = add nsw i32 %50, 8
  %52 = icmp slt i32 %46, %51
  br i1 %52, label %53, label %63

53:                                               ; preds = %34
  %54 = load ptr, ptr %3, align 8, !tbaa !4
  %55 = load ptr, ptr %4, align 8, !tbaa !29
  %56 = getelementptr inbounds nuw %struct.RV34DecContext, ptr %55, i32 0, i32 17
  %57 = load i32, ptr %56, align 4, !tbaa !66
  %58 = mul nsw i32 2, %57
  %59 = add nsw i32 %58, 8
  %60 = load ptr, ptr %3, align 8, !tbaa !4
  %61 = getelementptr inbounds nuw %struct.AVCodecContext, ptr %60, i32 0, i32 13
  %62 = load i32, ptr %61, align 8, !tbaa !61
  call void (ptr, i32, ptr, ...) @av_log(ptr noundef %54, i32 noundef 24, ptr noundef @.str.3, i32 noundef %59, i32 noundef %62)
  br label %63

63:                                               ; preds = %53, %34
  %64 = load ptr, ptr %4, align 8, !tbaa !29
  %65 = getelementptr inbounds nuw %struct.RV34DecContext, ptr %64, i32 0, i32 35
  store ptr @rv30_parse_slice_header, ptr %65, align 8, !tbaa !67
  %66 = load ptr, ptr %4, align 8, !tbaa !29
  %67 = getelementptr inbounds nuw %struct.RV34DecContext, ptr %66, i32 0, i32 37
  store ptr @rv30_decode_intra_types, ptr %67, align 8, !tbaa !68
  %68 = load ptr, ptr %4, align 8, !tbaa !29
  %69 = getelementptr inbounds nuw %struct.RV34DecContext, ptr %68, i32 0, i32 36
  store ptr @rv30_decode_mb_info, ptr %69, align 8, !tbaa !69
  %70 = load ptr, ptr %4, align 8, !tbaa !29
  %71 = getelementptr inbounds nuw %struct.RV34DecContext, ptr %70, i32 0, i32 38
  store ptr @rv30_loop_filter, ptr %71, align 8, !tbaa !70
  %72 = load ptr, ptr %4, align 8, !tbaa !29
  %73 = getelementptr inbounds nuw %struct.RV34DecContext, ptr %72, i32 0, i32 5
  store ptr @rv30_luma_dc_quant, ptr %73, align 8, !tbaa !71
  %74 = load ptr, ptr %4, align 8, !tbaa !29
  %75 = getelementptr inbounds nuw %struct.RV34DecContext, ptr %74, i32 0, i32 6
  store ptr @rv30_luma_dc_quant, ptr %75, align 8, !tbaa !72
  %76 = load ptr, ptr %4, align 8, !tbaa !29
  %77 = getelementptr inbounds nuw %struct.RV34DecContext, ptr %76, i32 0, i32 1
  call void @ff_rv30dsp_init(ptr noundef %77)
  store i32 0, ptr %2, align 4
  store i32 1, ptr %6, align 4
  br label %78

78:                                               ; preds = %63, %32, %24
  call void @llvm.lifetime.end.p0(i64 4, ptr %5) #7
  call void @llvm.lifetime.end.p0(i64 8, ptr %4) #7
  %79 = load i32, ptr %2, align 4
  ret i32 %79
}