; Function Attrs: cold nounwind optsize uwtable
define internal range(i32 -2147483648, 1) i32 @rv30_decode_init(ptr noundef %0) #1 {
  %2 = getelementptr inbounds nuw i8, ptr %0, i64 32
  %3 = load ptr, ptr %2, align 8, !tbaa !4
  %4 = getelementptr inbounds nuw i8, ptr %0, i64 120
  %5 = load i32, ptr %4, align 8, !tbaa !27
  %6 = getelementptr inbounds nuw i8, ptr %3, i64 6640
  store i32 %5, ptr %6, align 8, !tbaa !28
  %7 = getelementptr inbounds nuw i8, ptr %0, i64 124
  %8 = load i32, ptr %7, align 4, !tbaa !56
  %9 = getelementptr inbounds nuw i8, ptr %3, i64 6644
  store i32 %8, ptr %9, align 4, !tbaa !57
  %10 = getelementptr inbounds nuw i8, ptr %0, i64 80
  %11 = load i32, ptr %10, align 8, !tbaa !58
  %12 = icmp slt i32 %11, 2
  br i1 %12, label %13, label %14

13:                                               ; preds = %1
  tail call void (ptr, i32, ptr, ...) @av_log(ptr noundef nonnull %0, i32 noundef 16, ptr noundef nonnull @.str.2) #6
  br label %39

14:                                               ; preds = %1
  %15 = getelementptr inbounds nuw i8, ptr %3, i64 6600
  store i32 1, ptr %15, align 8, !tbaa !59
  %16 = tail call i32 @ff_rv34_decode_init(ptr noundef nonnull %0) #6
  %17 = icmp slt i32 %16, 0
  br i1 %17, label %39, label %18

18:                                               ; preds = %14
  %19 = getelementptr inbounds nuw i8, ptr %0, i64 72
  %20 = load ptr, ptr %19, align 8, !tbaa !60
  %21 = getelementptr inbounds nuw i8, ptr %20, i64 1
  %22 = load i8, ptr %21, align 1, !tbaa !61
  %23 = and i8 %22, 7
  %24 = zext nneg i8 %23 to i32
  %25 = getelementptr inbounds nuw i8, ptr %3, i64 6604
  store i32 %24, ptr %25, align 4, !tbaa !62
  %26 = load i32, ptr %10, align 8, !tbaa !58
  %27 = shl nuw nsw i32 %24, 1
  %28 = add nuw nsw i32 %27, 8
  %29 = icmp slt i32 %26, %28
  br i1 %29, label %30, label %31

30:                                               ; preds = %18
  tail call void (ptr, i32, ptr, ...) @av_log(ptr noundef nonnull %0, i32 noundef 24, ptr noundef nonnull @.str.3, i32 noundef %28, i32 noundef %26) #6
  br label %31

31:                                               ; preds = %30, %18
  %32 = getelementptr inbounds nuw i8, ptr %3, i64 6776
  store ptr @rv30_parse_slice_header, ptr %32, align 8, !tbaa !63
  %33 = getelementptr inbounds nuw i8, ptr %3, i64 6792
  store ptr @rv30_decode_intra_types, ptr %33, align 8, !tbaa !64
  %34 = getelementptr inbounds nuw i8, ptr %3, i64 6784
  store ptr @rv30_decode_mb_info, ptr %34, align 8, !tbaa !65
  %35 = getelementptr inbounds nuw i8, ptr %3, i64 6800
  store ptr @rv30_loop_filter, ptr %35, align 8, !tbaa !66
  %36 = getelementptr inbounds nuw i8, ptr %3, i64 6016
  store ptr @rv30_luma_dc_quant, ptr %36, align 8, !tbaa !67
  %37 = getelementptr inbounds nuw i8, ptr %3, i64 6024
  store ptr @rv30_luma_dc_quant, ptr %37, align 8, !tbaa !68
  %38 = getelementptr inbounds nuw i8, ptr %3, i64 4808
  tail call void @ff_rv30dsp_init(ptr noundef nonnull %38) #6
  br label %39

39:                                               ; preds = %14, %31, %13
  %.0 = phi i32 [ -22, %13 ], [ 0, %31 ], [ %16, %14 ]
  ret i32 %.0
}